#include <math.h>
#include <stdio.h>
#include <stdlib.h>
#include <string.h>

//
//  main.cpp
//  ??
//
//  Created by Love on 13-1-12.
//  Copyright (c) 2013? Love. All rights reserved.
//

int main(){
    int n,i,a[100],e,m;
    scanf("%d",&n);
    for (i=0; i<n; i++) {
        scanf("%d",&a[i]);
    }
    if (n%2==0) {
        m=n/2;
    }else{
        m=(n-1)/2;
    }
    for (i=0; i<m; i++) {
        e=a[i];
        a[i]=a[n-i-1];
        a[n-i-1]=e;
            }
    printf("%d",a[0]);
    for (i=1; i<n; i++) {
        printf(" %d",a[i]);
    }
    
    
        
    return 0;
}
